target datalayout = "e-m:e-p270:32:32-p271:32:32-p272:64:64-i64:64-i128:128-f80:128-n8:16:32:64-S128"
target triple = "x86_64-pc-linux-gnu"

%struct.redisServer = type { i32, i64, ptr, ptr, ptr, i32, i32, i32, i32, i32, ptr, ptr, ptr, ptr, ptr, i32, i32, i32, i32, i64, i32, i32, i32, i32, ptr, i32, i32, [41 x i8], i32, i64, i32, i32, i32, ptr, ptr, i32, i32, i64, ptr, ptr, ptr, ptr, [2 x i32], i32, i32, i32, i32, i32, i32, [16 x ptr], i32, ptr, ptr, i32, [8 x %struct.connListener], i32, %struct.connListener, ptr, ptr, ptr, ptr, ptr, ptr, ptr, ptr, ptr, ptr, i32, ptr, i32, ptr, [3 x %struct.pause_event], [256 x i8], ptr, i64, i32, i32, [128 x i32], i32, i32, i64, i32, i32, i32, i32, i32, i64, i64, i64, i64, i64, i64, i64, i64, i64, i64, double, i64, i64, i64, i64, i64, i64, i64, i64, i64, i64, i64, i64, i64, i64, i64, i64, i64, i64, i64, i64, i64, double, i64, i64, i64, i64, i64, ptr, i64, i64, i64, %struct.malloc_stats, i64, i64, i64, i64, i64, i64, i64, i64, i64, i64, i64, i64, double, [4 x i64], i64, i64, i64, i64, [128 x i64], [128 x i64], i64, i64, [7 x %struct.anon], i64, i64, i64, i64, i64, i64, [4 x %struct.durationStats], i32, i32, i32, i32, i32, i32, i32, i32, i32, i32, i32, i32, i64, i32, i32, i32, i32, i64, i64, i32, i32, i32, i32, i32, ptr, [3 x %struct.clientBufferLimitsConfig], i32, i32, i32, ptr, i32, i32, i32, i32, i32, i32, ptr, ptr, i32, i32, i64, i64, i64, i64, i64, i32, i32, ptr, i32, i32, i64, i64, i64, i64, i64, i32, i32, i64, i32, i32, i32, i32, i32, i32, i32, i32, ptr, i32, i64, i64, i64, i64, i32, ptr, i32, ptr, i32, i32, i32, i64, i64, i64, i64, i32, i32, i32, i32, i32, i32, ptr, i32, i32, ptr, i32, i32, i32, [2 x i32], i32, %struct.redisOpArray, i32, ptr, i32, ptr, i32, i32, i32, i32, i32, i32, i32, [41 x i8], [41 x i8], i64, i64, i64, i64, i32, i32, ptr, i64, i64, %struct.replDataBuf, i64, i64, i32, i32, i32, i32, i32, i32, i32, i32, i32, i64, ptr, i64, ptr, ptr, ptr, i32, i32, ptr, ptr, i32, i32, i32, i64, i64, i64, i64, ptr, ptr, i32, ptr, i64, i32, i32, i32, i64, i32, i32, i32, i32, ptr, i32, i32, [41 x i8], i64, i32, ptr, i32, i32, i64, i64, i32, i32, i32, i32, i32, i64, [3 x i32], i32, i32, i32, [10 x i32], ptr, ptr, i32, i64, ptr, ptr, i32, i32, i32, i32, i64, i64, i64, i64, i64, i64, i64, i64, i64, i64, i32, i32, i64, i64, i32, i64, i64, i64, i64, i64, ptr, ptr, i32, ptr, i32, i32, i32, i32, i64, i64, ptr, ptr, i32, i32, i32, i32, i32, ptr, ptr, ptr, i32, i32, i32, i32, i32, i32, i32, i64, i32, i32, i64, i32, i32, i32, i32, i32, i32, i32, i64, ptr, ptr, i64, ptr, i32, %struct.aclInfo, i32, i64, i32, i32, i32, %struct.redisTLSContextConfig, ptr, ptr, ptr, ptr, ptr, i64, i32, ptr, i32, i32, i32, i64, i32, ptr }
%struct.connListener = type { [16 x i32], i32, ptr, i32, i32, ptr, ptr }
%struct.pause_event = type { i32, i64 }
%struct.malloc_stats = type { i64, i64, i64, i64, i64, i64, i64, i64, i64, i64, i64 }
%struct.anon = type { i64, i64, [16 x i64], i32 }
%struct.durationStats = type { i64, i64, i64 }
%struct.clientBufferLimitsConfig = type { i64, i64, i64 }
%struct.redisOpArray = type { ptr, i32, i32 }
%struct.replDataBuf = type { ptr, i64, i64, i64, i64 }
%struct.aclInfo = type { i64, i64, i64, i64 }
%struct.redisTLSContextConfig = type { ptr, ptr, ptr, ptr, ptr, ptr, ptr, ptr, ptr, ptr, ptr, ptr, i32, i32, i32, i32 }
%struct.engineInfo = type { ptr, ptr, ptr }
%struct.engine = type { ptr, ptr, ptr, ptr, ptr, ptr, ptr, ptr }
%struct.functionInfo = type { ptr, ptr, ptr, ptr, i64 }
%struct.functionLibInfo = type { ptr, ptr, ptr, ptr }
%struct.functionsLibCtx = type { ptr, ptr, i64, ptr }
%struct.client = type { i64, i64, ptr, i8, i8, i8, i8, i32, ptr, ptr, ptr, ptr, ptr, i64, i64, i32, ptr, i32, i32, ptr, i64, ptr, ptr, ptr, ptr, ptr, i32, i32, i64, ptr, i64, ptr, i64, i64, i64, i32, ptr, i64, i64, i32, i32, i32, i32, i64, i64, ptr, i64, i64, i64, i64, i64, i64, i64, i64, [41 x i8], i32, ptr, i32, i32, i64, %struct.multiState, %struct.blockingState, i64, ptr, ptr, ptr, ptr, ptr, ptr, ptr, ptr, ptr, ptr, ptr, ptr, ptr, ptr, i64, ptr, i64, i32, ptr, ptr, ptr, i64, %struct.listNode, i64, i64, i32, i64, ptr }
%struct.multiState = type { ptr, i32, i32, i32, i64, i32 }
%struct.blockingState = type { i32, i64, i32, ptr, i32, i32, i64, ptr, ptr, i64 }
%struct.listNode = type { ptr, ptr, ptr }
%struct.redisObject = type { i32, i32, ptr }
%struct.scriptRunCtx = type { ptr, ptr, ptr, i32, i32, i64, i32 }
%struct.redisDb = type { ptr, ptr, ptr, ptr, ptr, ptr, ptr, i32, i64, i64, ptr }

@curr_functions_lib_ctx = internal global ptr null, align 8
@server = external global %struct.redisServer, align 8
@.str.86 = private unnamed_addr constant [19 x i8] c"Function not found\00", align 1
@.str.87 = private unnamed_addr constant [28 x i8] c"Bad number of keys provided\00", align 1
@.str.88 = private unnamed_addr constant [52 x i8] c"Number of keys can't be greater than number of args\00", align 1
@.str.89 = private unnamed_addr constant [33 x i8] c"Number of keys can't be negative\00", align 1

; Function Attrs: nounwind uwtable
define internal void @fcallCommandGeneric(ptr noundef %0, i32 noundef %1) #1 {
  %3 = alloca ptr, align 8
  %4 = alloca i32, align 4
  %5 = alloca ptr, align 8
  %6 = alloca ptr, align 8
  %7 = alloca i32, align 4
  %8 = alloca ptr, align 8
  %9 = alloca ptr, align 8
  %10 = alloca i64, align 8
  %11 = alloca %struct.scriptRunCtx, align 8
  store ptr %0, ptr %3, align 8, !tbaa !91
  store i32 %1, ptr %4, align 4, !tbaa !54
  %12 = load ptr, ptr %3, align 8, !tbaa !91
  %13 = load ptr, ptr getelementptr inbounds nuw (%struct.redisServer, ptr @server, i32 0, i32 62), align 8, !tbaa !131
  %14 = load ptr, ptr %3, align 8, !tbaa !91
  %15 = getelementptr inbounds nuw %struct.client, ptr %14, i32 0, i32 8
  %16 = load ptr, ptr %15, align 8, !tbaa !132
  %17 = getelementptr inbounds nuw %struct.redisDb, ptr %16, i32 0, i32 7
  %18 = load i32, ptr %17, align 8, !tbaa !133
  %19 = load ptr, ptr %3, align 8, !tbaa !91
  %20 = getelementptr inbounds nuw %struct.client, ptr %19, i32 0, i32 16
  %21 = load ptr, ptr %20, align 8, !tbaa !107
  %22 = load ptr, ptr %3, align 8, !tbaa !91
  %23 = getelementptr inbounds nuw %struct.client, ptr %22, i32 0, i32 15
  %24 = load i32, ptr %23, align 8, !tbaa !106
  call void @replicationFeedMonitors(ptr noundef %12, ptr noundef %13, i32 noundef %18, ptr noundef %21, i32 noundef %24)
  call void @llvm.lifetime.start.p0(i64 8, ptr %5) #11
  %25 = load ptr, ptr %3, align 8, !tbaa !91
  %26 = getelementptr inbounds nuw %struct.client, ptr %25, i32 0, i32 16
  %27 = load ptr, ptr %26, align 8, !tbaa !107
  %28 = getelementptr inbounds ptr, ptr %27, i64 1
  %29 = load ptr, ptr %28, align 8, !tbaa !108
  store ptr %29, ptr %5, align 8, !tbaa !108
  call void @llvm.lifetime.start.p0(i64 8, ptr %6) #11
  %30 = load ptr, ptr %3, align 8, !tbaa !91
  %31 = getelementptr inbounds nuw %struct.client, ptr %30, i32 0, i32 36
  %32 = load ptr, ptr %31, align 8, !tbaa !130
  store ptr %32, ptr %6, align 8, !tbaa !46
  %33 = load ptr, ptr %6, align 8, !tbaa !46
  %34 = icmp ne ptr %33, null
  br i1 %34, label %43, label %35

35:                                               ; preds = %2
  %36 = load ptr, ptr @curr_functions_lib_ctx, align 8, !tbaa !38
  %37 = getelementptr inbounds nuw %struct.functionsLibCtx, ptr %36, i32 0, i32 1
  %38 = load ptr, ptr %37, align 8, !tbaa !40
  %39 = load ptr, ptr %5, align 8, !tbaa !108
  %40 = getelementptr inbounds nuw %struct.redisObject, ptr %39, i32 0, i32 2
  %41 = load ptr, ptr %40, align 8, !tbaa !109
  %42 = call ptr @dictFind(ptr noundef %38, ptr noundef %41)
  store ptr %42, ptr %6, align 8, !tbaa !46
  br label %43

43:                                               ; preds = %35, %2
  %44 = load ptr, ptr %6, align 8, !tbaa !46
  %45 = icmp ne ptr %44, null
  br i1 %45, label %48, label %46

46:                                               ; preds = %43
  %47 = load ptr, ptr %3, align 8, !tbaa !91
  call void @addReplyError(ptr noundef %47, ptr noundef @.str.86)
  store i32 1, ptr %7, align 4
  br label %132

48:                                               ; preds = %43
  call void @llvm.lifetime.start.p0(i64 8, ptr %8) #11
  %49 = load ptr, ptr %6, align 8, !tbaa !46
  %50 = call ptr @dictGetVal(ptr noundef %49)
  store ptr %50, ptr %8, align 8, !tbaa !25
  call void @llvm.lifetime.start.p0(i64 8, ptr %9) #11
  %51 = load ptr, ptr %8, align 8, !tbaa !25
  %52 = getelementptr inbounds nuw %struct.functionInfo, ptr %51, i32 0, i32 2
  %53 = load ptr, ptr %52, align 8, !tbaa !32
  %54 = getelementptr inbounds nuw %struct.functionLibInfo, ptr %53, i32 0, i32 2
  %55 = load ptr, ptr %54, align 8, !tbaa !33
  %56 = getelementptr inbounds nuw %struct.engineInfo, ptr %55, i32 0, i32 1
  %57 = load ptr, ptr %56, align 8, !tbaa !19
  store ptr %57, ptr %9, align 8, !tbaa !35
  call void @llvm.lifetime.start.p0(i64 8, ptr %10) #11
  %58 = load ptr, ptr %3, align 8, !tbaa !91
  %59 = getelementptr inbounds nuw %struct.client, ptr %58, i32 0, i32 16
  %60 = load ptr, ptr %59, align 8, !tbaa !107
  %61 = getelementptr inbounds ptr, ptr %60, i64 2
  %62 = load ptr, ptr %61, align 8, !tbaa !108
  %63 = call i32 @getLongLongFromObject(ptr noundef %62, ptr noundef %10)
  %64 = icmp ne i32 %63, 0
  br i1 %64, label %65, label %67

65:                                               ; preds = %48
  %66 = load ptr, ptr %3, align 8, !tbaa !91
  call void @addReplyError(ptr noundef %66, ptr noundef @.str.87)
  store i32 1, ptr %7, align 4
  br label %131

67:                                               ; preds = %48
  %68 = load i64, ptr %10, align 8, !tbaa !135
  %69 = load ptr, ptr %3, align 8, !tbaa !91
  %70 = getelementptr inbounds nuw %struct.client, ptr %69, i32 0, i32 15
  %71 = load i32, ptr %70, align 8, !tbaa !106
  %72 = sub nsw i32 %71, 3
  %73 = sext i32 %72 to i64
  %74 = icmp sgt i64 %68, %73
  br i1 %74, label %75, label %77

75:                                               ; preds = %67
  %76 = load ptr, ptr %3, align 8, !tbaa !91
  call void @addReplyError(ptr noundef %76, ptr noundef @.str.88)
  store i32 1, ptr %7, align 4
  br label %131

77:                                               ; preds = %67
  %78 = load i64, ptr %10, align 8, !tbaa !135
  %79 = icmp slt i64 %78, 0
  br i1 %79, label %80, label %82

80:                                               ; preds = %77
  %81 = load ptr, ptr %3, align 8, !tbaa !91
  call void @addReplyError(ptr noundef %81, ptr noundef @.str.89)
  store i32 1, ptr %7, align 4
  br label %131

82:                                               ; preds = %77
  br label %83

83:                                               ; preds = %82
  call void @llvm.lifetime.start.p0(i64 48, ptr %11) #11
  %84 = load ptr, ptr %8, align 8, !tbaa !25
  %85 = getelementptr inbounds nuw %struct.functionInfo, ptr %84, i32 0, i32 2
  %86 = load ptr, ptr %85, align 8, !tbaa !32
  %87 = getelementptr inbounds nuw %struct.functionLibInfo, ptr %86, i32 0, i32 2
  %88 = load ptr, ptr %87, align 8, !tbaa !33
  %89 = getelementptr inbounds nuw %struct.engineInfo, ptr %88, i32 0, i32 2
  %90 = load ptr, ptr %89, align 8, !tbaa !13
  %91 = load ptr, ptr %3, align 8, !tbaa !91
  %92 = load ptr, ptr %8, align 8, !tbaa !25
  %93 = getelementptr inbounds nuw %struct.functionInfo, ptr %92, i32 0, i32 0
  %94 = load ptr, ptr %93, align 8, !tbaa !27
  %95 = load ptr, ptr %8, align 8, !tbaa !25
  %96 = getelementptr inbounds nuw %struct.functionInfo, ptr %95, i32 0, i32 4
  %97 = load i64, ptr %96, align 8, !tbaa !63
  %98 = load i32, ptr %4, align 4, !tbaa !54
  %99 = call i32 @scriptPrepareForRun(ptr noundef %11, ptr noundef %90, ptr noundef %91, ptr noundef %94, i64 noundef %97, i32 noundef %98)
  %100 = icmp ne i32 %99, 0
  br i1 %100, label %101, label %102

101:                                              ; preds = %83
  store i32 1, ptr %7, align 4
  br label %130

102:                                              ; preds = %83
  %103 = load ptr, ptr %9, align 8, !tbaa !35
  %104 = getelementptr inbounds nuw %struct.engine, ptr %103, i32 0, i32 2
  %105 = load ptr, ptr %104, align 8, !tbaa !136
  %106 = load ptr, ptr %9, align 8, !tbaa !35
  %107 = getelementptr inbounds nuw %struct.engine, ptr %106, i32 0, i32 0
  %108 = load ptr, ptr %107, align 8, !tbaa !22
  %109 = load ptr, ptr %8, align 8, !tbaa !25
  %110 = getelementptr inbounds nuw %struct.functionInfo, ptr %109, i32 0, i32 1
  %111 = load ptr, ptr %110, align 8, !tbaa !37
  %112 = load ptr, ptr %3, align 8, !tbaa !91
  %113 = getelementptr inbounds nuw %struct.client, ptr %112, i32 0, i32 16
  %114 = load ptr, ptr %113, align 8, !tbaa !107
  %115 = getelementptr inbounds ptr, ptr %114, i64 3
  %116 = load i64, ptr %10, align 8, !tbaa !135
  %117 = load ptr, ptr %3, align 8, !tbaa !91
  %118 = getelementptr inbounds nuw %struct.client, ptr %117, i32 0, i32 16
  %119 = load ptr, ptr %118, align 8, !tbaa !107
  %120 = getelementptr inbounds ptr, ptr %119, i64 3
  %121 = load i64, ptr %10, align 8, !tbaa !135
  %122 = getelementptr inbounds ptr, ptr %120, i64 %121
  %123 = load ptr, ptr %3, align 8, !tbaa !91
  %124 = getelementptr inbounds nuw %struct.client, ptr %123, i32 0, i32 15
  %125 = load i32, ptr %124, align 8, !tbaa !106
  %126 = sub nsw i32 %125, 3
  %127 = sext i32 %126 to i64
  %128 = load i64, ptr %10, align 8, !tbaa !135
  %129 = sub nsw i64 %127, %128
  call void %105(ptr noundef %11, ptr noundef %108, ptr noundef %111, ptr noundef %115, i64 noundef %116, ptr noundef %122, i64 noundef %129)
  call void @scriptResetRun(ptr noundef %11)
  store i32 0, ptr %7, align 4
  br label %130

130:                                              ; preds = %102, %101
  call void @llvm.lifetime.end.p0(i64 48, ptr %11) #11
  br label %131

131:                                              ; preds = %130, %80, %75, %65
  call void @llvm.lifetime.end.p0(i64 8, ptr %10) #11
  call void @llvm.lifetime.end.p0(i64 8, ptr %9) #11
  call void @llvm.lifetime.end.p0(i64 8, ptr %8) #11
  br label %132

132:                                              ; preds = %131, %46
  call void @llvm.lifetime.end.p0(i64 8, ptr %6) #11
  call void @llvm.lifetime.end.p0(i64 8, ptr %5) #11
  %133 = load i32, ptr %7, align 4
  switch i32 %133, label %135 [
    i32 0, label %134
    i32 1, label %134
  ]

134:                                              ; preds = %132, %132
  ret void

135:                                              ; preds = %132
  unreachable
}