; Function Attrs: nounwind uwtable
define internal fastcc void @fcallCommandGeneric(ptr noundef %0, i32 noundef range(i32 0, 2) %1) unnamed_addr #1 {
  %3 = alloca i64, align 8
  %4 = alloca %struct.scriptRunCtx, align 8
  %5 = load ptr, ptr getelementptr inbounds nuw (i8, ptr @server, i64 1472), align 8, !tbaa !121
  %6 = getelementptr inbounds nuw i8, ptr %0, i64 32
  %7 = load ptr, ptr %6, align 8, !tbaa !122
  %8 = getelementptr inbounds nuw i8, ptr %7, i64 56
  %9 = load i32, ptr %8, align 8, !tbaa !123
  %10 = getelementptr inbounds nuw i8, ptr %0, i64 96
  %11 = load ptr, ptr %10, align 8, !tbaa !97
  %12 = getelementptr inbounds nuw i8, ptr %0, i64 88
  %13 = load i32, ptr %12, align 8, !tbaa !96
  tail call void @replicationFeedMonitors(ptr noundef %0, ptr noundef %5, i32 noundef %9, ptr noundef %11, i32 noundef %13) #12
  %14 = getelementptr inbounds nuw i8, ptr %0, i64 240
  %15 = load ptr, ptr %14, align 8, !tbaa !120
  %.not = icmp eq ptr %15, null
  br i1 %.not, label %16, label %.thread

16:                                               ; preds = %2
  %17 = load ptr, ptr %10, align 8, !tbaa !97
  %18 = getelementptr inbounds nuw i8, ptr %17, i64 8
  %19 = load ptr, ptr %18, align 8, !tbaa !98
  %20 = load ptr, ptr @curr_functions_lib_ctx, align 8, !tbaa !40
  %21 = getelementptr inbounds nuw i8, ptr %20, i64 8
  %22 = load ptr, ptr %21, align 8, !tbaa !33
  %23 = getelementptr inbounds nuw i8, ptr %19, i64 8
  %24 = load ptr, ptr %23, align 8, !tbaa !99
  %25 = tail call ptr @dictFind(ptr noundef %22, ptr noundef %24) #12
  %.not29 = icmp eq ptr %25, null
  br i1 %.not29, label %26, label %.thread

26:                                               ; preds = %16
  tail call void @addReplyError(ptr noundef nonnull %0, ptr noundef nonnull @.str.86) #12
  br label %75

.thread:                                          ; preds = %2, %16
  %.034 = phi ptr [ %25, %16 ], [ %15, %2 ]
  %27 = tail call ptr @dictGetVal(ptr noundef nonnull %.034) #12
  %28 = getelementptr inbounds nuw i8, ptr %27, i64 16
  %29 = load ptr, ptr %28, align 8, !tbaa !23
  %30 = getelementptr inbounds nuw i8, ptr %29, i64 16
  %31 = load ptr, ptr %30, align 8, !tbaa !24
  %32 = getelementptr inbounds nuw i8, ptr %31, i64 8
  %33 = load ptr, ptr %32, align 8, !tbaa !14
  call void @llvm.lifetime.start.p0(i64 8, ptr nonnull %3) #12
  %34 = load ptr, ptr %10, align 8, !tbaa !97
  %35 = getelementptr inbounds nuw i8, ptr %34, i64 16
  %36 = load ptr, ptr %35, align 8, !tbaa !98
  %37 = call i32 @getLongLongFromObject(ptr noundef %36, ptr noundef nonnull %3) #12
  %.not30 = icmp eq i32 %37, 0
  br i1 %.not30, label %39, label %38

38:                                               ; preds = %.thread
  call void @addReplyError(ptr noundef nonnull %0, ptr noundef nonnull @.str.87) #12
  br label %74

39:                                               ; preds = %.thread
  %40 = load i64, ptr %3, align 8, !tbaa !125
  %41 = load i32, ptr %12, align 8, !tbaa !96
  %42 = add nsw i32 %41, -3
  %43 = sext i32 %42 to i64
  %44 = icmp sgt i64 %40, %43
  br i1 %44, label %45, label %46

45:                                               ; preds = %39
  call void @addReplyError(ptr noundef nonnull %0, ptr noundef nonnull @.str.88) #12
  br label %74

46:                                               ; preds = %39
  %47 = icmp slt i64 %40, 0
  br i1 %47, label %48, label %49

48:                                               ; preds = %46
  call void @addReplyError(ptr noundef nonnull %0, ptr noundef nonnull @.str.89) #12
  br label %74

49:                                               ; preds = %46
  call void @llvm.lifetime.start.p0(i64 48, ptr nonnull %4) #12
  %50 = load ptr, ptr %28, align 8, !tbaa !23
  %51 = getelementptr inbounds nuw i8, ptr %50, i64 16
  %52 = load ptr, ptr %51, align 8, !tbaa !24
  %53 = getelementptr inbounds nuw i8, ptr %52, i64 16
  %54 = load ptr, ptr %53, align 8, !tbaa !5
  %55 = load ptr, ptr %27, align 8, !tbaa !18
  %56 = getelementptr inbounds nuw i8, ptr %27, i64 32
  %57 = load i64, ptr %56, align 8, !tbaa !110
  %58 = call i32 @scriptPrepareForRun(ptr noundef nonnull %4, ptr noundef %54, ptr noundef nonnull %0, ptr noundef %55, i64 noundef %57, i32 noundef %1) #12
  %.not31 = icmp eq i32 %58, 0
  br i1 %.not31, label %59, label %73

59:                                               ; preds = %49
  %60 = getelementptr inbounds nuw i8, ptr %33, i64 16
  %61 = load ptr, ptr %60, align 8, !tbaa !126
  %62 = load ptr, ptr %33, align 8, !tbaa !17
  %63 = getelementptr inbounds nuw i8, ptr %27, i64 8
  %64 = load ptr, ptr %63, align 8, !tbaa !29
  %65 = load ptr, ptr %10, align 8, !tbaa !97
  %66 = getelementptr inbounds nuw i8, ptr %65, i64 24
  %67 = load i64, ptr %3, align 8, !tbaa !125
  %68 = getelementptr inbounds ptr, ptr %66, i64 %67
  %69 = load i32, ptr %12, align 8, !tbaa !96
  %70 = add nsw i32 %69, -3
  %71 = sext i32 %70 to i64
  %72 = sub nsw i64 %71, %67
  call void %61(ptr noundef nonnull %4, ptr noundef %62, ptr noundef %64, ptr noundef nonnull %66, i64 noundef %67, ptr noundef nonnull %68, i64 noundef %72) #12
  call void @scriptResetRun(ptr noundef nonnull %4) #12
  br label %73

73:                                               ; preds = %49, %59
  call void @llvm.lifetime.end.p0(i64 48, ptr nonnull %4) #12
  br label %74

74:                                               ; preds = %73, %48, %45, %38
  call void @llvm.lifetime.end.p0(i64 8, ptr nonnull %3) #12
  br label %75

75:                                               ; preds = %74, %26
  ret void
}